target datalayout = "e-m:e-p270:32:32-p271:32:32-p272:64:64-i64:64-i128:128-f80:128-n8:16:32:64-S128"
target triple = "x86_64-pc-linux-gnu"

%struct.hpdata_s = type { ptr, i64, i8, i8, i8, i8, i8, %struct.nstime_t, i8, i8, i8, i8, i8, %union.anon, %struct.anon.0, %struct.anon.1, i64, i64, [8 x i64], i64, [8 x i64] }
%struct.nstime_t = type { i64 }
%union.anon = type { %struct.hpdata_age_heap_link_t }
%struct.hpdata_age_heap_link_t = type { %struct.phn_link_s }
%struct.phn_link_s = type { ptr, ptr, ptr }
%struct.anon.0 = type { ptr, ptr }
%struct.anon.1 = type { ptr, ptr }
%struct.hpdata_purge_state_s = type { i64, i64, [8 x i64], i64 }

; Function Attrs: inlinehint nounwind uwtable
define internal i32 @fls_lu(i64 noundef %0) #3 {
  %2 = alloca i64, align 8
  store i64 %0, ptr %2, align 8, !tbaa !14
  %3 = load i64, ptr %2, align 8, !tbaa !14
  %4 = icmp ne i64 %3, 0
  call void @llvm.assume(i1 %4)
  %5 = load i64, ptr %2, align 8, !tbaa !14
  %6 = call i64 @llvm.ctlz.i64(i64 %5, i1 true)
  %7 = trunc i64 %6 to i32
  %8 = sext i32 %7 to i64
  %9 = xor i64 63, %8
  %10 = trunc i64 %9 to i32
  ret i32 %10
}

; Function Attrs: inlinehint nounwind uwtable
define internal i32 @ffs_lu(i64 noundef %0) #3 {
  %2 = alloca i64, align 8
  store i64 %0, ptr %2, align 8, !tbaa !14
  %3 = load i64, ptr %2, align 8, !tbaa !14
  %4 = icmp ne i64 %3, 0
  call void @llvm.assume(i1 %4)
  %5 = load i64, ptr %2, align 8, !tbaa !14
  %6 = call i64 @llvm.cttz.i64(i64 %5, i1 true)
  %7 = add i64 %6, 1
  %8 = icmp eq i64 %5, 0
  %9 = select i1 %8, i64 0, i64 %7
  %10 = trunc i64 %9 to i32
  %11 = sub nsw i32 %10, 1
  ret i32 %11
}

; Function Attrs: alwaysinline nounwind uwtable
define internal i64 @fb_find_impl(ptr noundef %0, i64 noundef %1, i64 noundef %2, i1 noundef zeroext %3, i1 noundef zeroext %4) #1 {
  %6 = alloca i64, align 8
  %7 = alloca ptr, align 8
  %8 = alloca i64, align 8
  %9 = alloca i64, align 8
  %10 = alloca i8, align 1
  %11 = alloca i8, align 1
  %12 = alloca i64, align 8
  %13 = alloca i64, align 8
  %14 = alloca i64, align 8
  %15 = alloca i64, align 8
  %16 = alloca i64, align 8
  %17 = alloca i64, align 8
  %18 = alloca i32, align 4
  %19 = alloca i64, align 8
  %20 = alloca i64, align 8
  store ptr %0, ptr %7, align 8, !tbaa !43
  store i64 %1, ptr %8, align 8, !tbaa !14
  store i64 %2, ptr %9, align 8, !tbaa !14
  %21 = zext i1 %3 to i8
  store i8 %21, ptr %10, align 1, !tbaa !19
  %22 = zext i1 %4 to i8
  store i8 %22, ptr %11, align 1, !tbaa !19
  br label %23

23:                                               ; preds = %5
  br label %24

24:                                               ; preds = %23
  call void @llvm.lifetime.start.p0(i64 8, ptr %12) #7
  %25 = load i64, ptr %8, align 8, !tbaa !14
  %26 = udiv i64 %25, 64
  %27 = load i64, ptr %8, align 8, !tbaa !14
  %28 = urem i64 %27, 64
  %29 = icmp eq i64 %28, 0
  %30 = select i1 %29, i32 0, i32 1
  %31 = sext i32 %30 to i64
  %32 = add i64 %26, %31
  store i64 %32, ptr %12, align 8, !tbaa !14
  call void @llvm.lifetime.start.p0(i64 8, ptr %13) #7
  %33 = load i64, ptr %9, align 8, !tbaa !14
  %34 = udiv i64 %33, 64
  store i64 %34, ptr %13, align 8, !tbaa !14
  call void @llvm.lifetime.start.p0(i64 8, ptr %14) #7
  %35 = load i64, ptr %9, align 8, !tbaa !14
  %36 = urem i64 %35, 64
  store i64 %36, ptr %14, align 8, !tbaa !14
  call void @llvm.lifetime.start.p0(i64 8, ptr %15) #7
  %37 = load i8, ptr %10, align 1, !tbaa !19, !range !21, !noundef !22
  %38 = trunc i8 %37 to i1
  %39 = select i1 %38, i64 0, i64 -1
  store i64 %39, ptr %15, align 8, !tbaa !14
  call void @llvm.lifetime.start.p0(i64 8, ptr %16) #7
  %40 = load ptr, ptr %7, align 8, !tbaa !43
  %41 = load i64, ptr %13, align 8, !tbaa !14
  %42 = getelementptr inbounds i64, ptr %40, i64 %41
  %43 = load i64, ptr %42, align 8, !tbaa !14
  store i64 %43, ptr %16, align 8, !tbaa !14
  %44 = load i64, ptr %15, align 8, !tbaa !14
  %45 = load i64, ptr %16, align 8, !tbaa !14
  %46 = xor i64 %45, %44
  store i64 %46, ptr %16, align 8, !tbaa !14
  %47 = load i8, ptr %11, align 1, !tbaa !19, !range !21, !noundef !22
  %48 = trunc i8 %47 to i1
  br i1 %48, label %49, label %56

49:                                               ; preds = %24
  %50 = load i64, ptr %14, align 8, !tbaa !14
  %51 = shl i64 1, %50
  %52 = sub i64 %51, 1
  %53 = xor i64 %52, -1
  %54 = load i64, ptr %16, align 8, !tbaa !14
  %55 = and i64 %54, %53
  store i64 %55, ptr %16, align 8, !tbaa !14
  br label %62

56:                                               ; preds = %24
  %57 = load i64, ptr %14, align 8, !tbaa !14
  %58 = shl i64 2, %57
  %59 = sub i64 %58, 1
  %60 = load i64, ptr %16, align 8, !tbaa !14
  %61 = and i64 %60, %59
  store i64 %61, ptr %16, align 8, !tbaa !14
  br label %62

62:                                               ; preds = %56, %49
  call void @llvm.lifetime.start.p0(i64 8, ptr %17) #7
  %63 = load i8, ptr %11, align 1, !tbaa !19, !range !21, !noundef !22
  %64 = trunc i8 %63 to i1
  br i1 %64, label %65, label %67

65:                                               ; preds = %62
  %66 = load i64, ptr %12, align 8, !tbaa !14
  br label %68

67:                                               ; preds = %62
  br label %68

68:                                               ; preds = %67, %65
  %69 = phi i64 [ %66, %65 ], [ -1, %67 ]
  store i64 %69, ptr %17, align 8, !tbaa !14
  br label %70

70:                                               ; preds = %91, %68
  %71 = load i64, ptr %16, align 8, !tbaa !14
  %72 = icmp eq i64 %71, 0
  br i1 %72, label %73, label %99

73:                                               ; preds = %70
  %74 = load i8, ptr %11, align 1, !tbaa !19, !range !21, !noundef !22
  %75 = trunc i8 %74 to i1
  %76 = select i1 %75, i32 1, i32 -1
  %77 = sext i32 %76 to i64
  %78 = load i64, ptr %13, align 8, !tbaa !14
  %79 = add nsw i64 %78, %77
  store i64 %79, ptr %13, align 8, !tbaa !14
  %80 = load i64, ptr %13, align 8, !tbaa !14
  %81 = load i64, ptr %17, align 8, !tbaa !14
  %82 = icmp eq i64 %80, %81
  br i1 %82, label %83, label %91

83:                                               ; preds = %73
  %84 = load i8, ptr %11, align 1, !tbaa !19, !range !21, !noundef !22
  %85 = trunc i8 %84 to i1
  br i1 %85, label %86, label %88

86:                                               ; preds = %83
  %87 = load i64, ptr %8, align 8, !tbaa !14
  br label %89

88:                                               ; preds = %83
  br label %89

89:                                               ; preds = %88, %86
  %90 = phi i64 [ %87, %86 ], [ -1, %88 ]
  store i64 %90, ptr %6, align 8
  store i32 1, ptr %18, align 4
  br label %132

91:                                               ; preds = %73
  %92 = load ptr, ptr %7, align 8, !tbaa !43
  %93 = load i64, ptr %13, align 8, !tbaa !14
  %94 = getelementptr inbounds i64, ptr %92, i64 %93
  %95 = load i64, ptr %94, align 8, !tbaa !14
  store i64 %95, ptr %16, align 8, !tbaa !14
  %96 = load i64, ptr %15, align 8, !tbaa !14
  %97 = load i64, ptr %16, align 8, !tbaa !14
  %98 = xor i64 %97, %96
  store i64 %98, ptr %16, align 8, !tbaa !14
  br label %70, !llvm.loop !60

99:                                               ; preds = %70
  br label %100

100:                                              ; preds = %99
  br label %101

101:                                              ; preds = %100
  br label %102

102:                                              ; preds = %101
  call void @llvm.lifetime.start.p0(i64 8, ptr %19) #7
  %103 = load i8, ptr %11, align 1, !tbaa !19, !range !21, !noundef !22
  %104 = trunc i8 %103 to i1
  br i1 %104, label %105, label %108

105:                                              ; preds = %102
  %106 = load i64, ptr %16, align 8, !tbaa !14
  %107 = call i32 @ffs_lu(i64 noundef %106)
  br label %111

108:                                              ; preds = %102
  %109 = load i64, ptr %16, align 8, !tbaa !14
  %110 = call i32 @fls_lu(i64 noundef %109)
  br label %111

111:                                              ; preds = %108, %105
  %112 = phi i32 [ %107, %105 ], [ %110, %108 ]
  %113 = zext i32 %112 to i64
  store i64 %113, ptr %19, align 8, !tbaa !14
  call void @llvm.lifetime.start.p0(i64 8, ptr %20) #7
  %114 = load i64, ptr %13, align 8, !tbaa !14
  %115 = mul i64 %114, 64
  %116 = load i64, ptr %19, align 8, !tbaa !14
  %117 = add i64 %115, %116
  store i64 %117, ptr %20, align 8, !tbaa !14
  %118 = load i8, ptr %11, align 1, !tbaa !19, !range !21, !noundef !22
  %119 = trunc i8 %118 to i1
  br i1 %119, label %120, label %129

120:                                              ; preds = %111
  %121 = load i8, ptr %10, align 1, !tbaa !19, !range !21, !noundef !22
  %122 = trunc i8 %121 to i1
  br i1 %122, label %129, label %123

123:                                              ; preds = %120
  %124 = load i64, ptr %20, align 8, !tbaa !14
  %125 = load i64, ptr %8, align 8, !tbaa !14
  %126 = icmp ugt i64 %124, %125
  br i1 %126, label %127, label %129

127:                                              ; preds = %123
  %128 = load i64, ptr %8, align 8, !tbaa !14
  store i64 %128, ptr %6, align 8
  store i32 1, ptr %18, align 4
  br label %131

129:                                              ; preds = %123, %120, %111
  %130 = load i64, ptr %20, align 8, !tbaa !14
  store i64 %130, ptr %6, align 8
  store i32 1, ptr %18, align 4
  br label %131

131:                                              ; preds = %129, %127
  call void @llvm.lifetime.end.p0(i64 8, ptr %20) #7
  call void @llvm.lifetime.end.p0(i64 8, ptr %19) #7
  br label %132

132:                                              ; preds = %131, %89
  call void @llvm.lifetime.end.p0(i64 8, ptr %17) #7
  call void @llvm.lifetime.end.p0(i64 8, ptr %16) #7
  call void @llvm.lifetime.end.p0(i64 8, ptr %15) #7
  call void @llvm.lifetime.end.p0(i64 8, ptr %14) #7
  call void @llvm.lifetime.end.p0(i64 8, ptr %13) #7
  call void @llvm.lifetime.end.p0(i64 8, ptr %12) #7
  %133 = load i64, ptr %6, align 8
  ret i64 %133
}

; Function Attrs: alwaysinline nounwind uwtable
define internal zeroext i1 @fb_iter_range_impl(ptr noundef %0, i64 noundef %1, i64 noundef %2, ptr noundef %3, ptr noundef %4, i1 noundef zeroext %5, i1 noundef zeroext %6) #1 {
  %8 = alloca i1, align 1
  %9 = alloca ptr, align 8
  %10 = alloca i64, align 8
  %11 = alloca i64, align 8
  %12 = alloca ptr, align 8
  %13 = alloca ptr, align 8
  %14 = alloca i8, align 1
  %15 = alloca i8, align 1
  %16 = alloca i64, align 8
  %17 = alloca i32, align 4
  %18 = alloca i64, align 8
  store ptr %0, ptr %9, align 8, !tbaa !43
  store i64 %1, ptr %10, align 8, !tbaa !14
  store i64 %2, ptr %11, align 8, !tbaa !14
  store ptr %3, ptr %12, align 8, !tbaa !43
  store ptr %4, ptr %13, align 8, !tbaa !43
  %19 = zext i1 %5 to i8
  store i8 %19, ptr %14, align 1, !tbaa !19
  %20 = zext i1 %6 to i8
  store i8 %20, ptr %15, align 1, !tbaa !19
  br label %21

21:                                               ; preds = %7
  br label %22

22:                                               ; preds = %21
  call void @llvm.lifetime.start.p0(i64 8, ptr %16) #7
  %23 = load ptr, ptr %9, align 8, !tbaa !43
  %24 = load i64, ptr %10, align 8, !tbaa !14
  %25 = load i64, ptr %11, align 8, !tbaa !14
  %26 = load i8, ptr %14, align 1, !tbaa !19, !range !21, !noundef !22
  %27 = trunc i8 %26 to i1
  %28 = load i8, ptr %15, align 1, !tbaa !19, !range !21, !noundef !22
  %29 = trunc i8 %28 to i1
  %30 = call i64 @fb_find_impl(ptr noundef %23, i64 noundef %24, i64 noundef %25, i1 noundef zeroext %27, i1 noundef zeroext %29)
  store i64 %30, ptr %16, align 8, !tbaa !14
  %31 = load i8, ptr %15, align 1, !tbaa !19, !range !21, !noundef !22
  %32 = trunc i8 %31 to i1
  br i1 %32, label %33, label %37

33:                                               ; preds = %22
  %34 = load i64, ptr %16, align 8, !tbaa !14
  %35 = load i64, ptr %10, align 8, !tbaa !14
  %36 = icmp eq i64 %34, %35
  br i1 %36, label %43, label %37

37:                                               ; preds = %33, %22
  %38 = load i8, ptr %15, align 1, !tbaa !19, !range !21, !noundef !22
  %39 = trunc i8 %38 to i1
  br i1 %39, label %44, label %40

40:                                               ; preds = %37
  %41 = load i64, ptr %16, align 8, !tbaa !14
  %42 = icmp eq i64 %41, -1
  br i1 %42, label %43, label %44

43:                                               ; preds = %40, %33
  store i1 false, ptr %8, align 1
  store i32 1, ptr %17, align 4
  br label %72

44:                                               ; preds = %40, %37
  call void @llvm.lifetime.start.p0(i64 8, ptr %18) #7
  %45 = load ptr, ptr %9, align 8, !tbaa !43
  %46 = load i64, ptr %10, align 8, !tbaa !14
  %47 = load i64, ptr %16, align 8, !tbaa !14
  %48 = load i8, ptr %14, align 1, !tbaa !19, !range !21, !noundef !22
  %49 = trunc i8 %48 to i1
  %50 = xor i1 %49, true
  %51 = load i8, ptr %15, align 1, !tbaa !19, !range !21, !noundef !22
  %52 = trunc i8 %51 to i1
  %53 = call i64 @fb_find_impl(ptr noundef %45, i64 noundef %46, i64 noundef %47, i1 noundef zeroext %50, i1 noundef zeroext %52)
  store i64 %53, ptr %18, align 8, !tbaa !14
  %54 = load i8, ptr %15, align 1, !tbaa !19, !range !21, !noundef !22
  %55 = trunc i8 %54 to i1
  br i1 %55, label %56, label %63

56:                                               ; preds = %44
  %57 = load i64, ptr %16, align 8, !tbaa !14
  %58 = load ptr, ptr %12, align 8, !tbaa !43
  store i64 %57, ptr %58, align 8, !tbaa !14
  %59 = load i64, ptr %18, align 8, !tbaa !14
  %60 = load i64, ptr %16, align 8, !tbaa !14
  %61 = sub nsw i64 %59, %60
  %62 = load ptr, ptr %13, align 8, !tbaa !43
  store i64 %61, ptr %62, align 8, !tbaa !14
  br label %71

63:                                               ; preds = %44
  %64 = load i64, ptr %18, align 8, !tbaa !14
  %65 = add nsw i64 %64, 1
  %66 = load ptr, ptr %12, align 8, !tbaa !43
  store i64 %65, ptr %66, align 8, !tbaa !14
  %67 = load i64, ptr %16, align 8, !tbaa !14
  %68 = load i64, ptr %18, align 8, !tbaa !14
  %69 = sub nsw i64 %67, %68
  %70 = load ptr, ptr %13, align 8, !tbaa !43
  store i64 %69, ptr %70, align 8, !tbaa !14
  br label %71

71:                                               ; preds = %63, %56
  store i1 true, ptr %8, align 1
  store i32 1, ptr %17, align 4
  call void @llvm.lifetime.end.p0(i64 8, ptr %18) #7
  br label %72

72:                                               ; preds = %71, %43
  call void @llvm.lifetime.end.p0(i64 8, ptr %16) #7
  %73 = load i1, ptr %8, align 1
  ret i1 %73
}

; Function Attrs: inlinehint nounwind uwtable
define internal ptr @hpdata_addr_get(ptr noundef %0) #3 {
  %2 = alloca ptr, align 8
  store ptr %0, ptr %2, align 8, !tbaa !15
  %3 = load ptr, ptr %2, align 8, !tbaa !15
  %4 = getelementptr inbounds nuw %struct.hpdata_s, ptr %3, i32 0, i32 0
  %5 = load ptr, ptr %4, align 8, !tbaa !40
  ret ptr %5
}

; Function Attrs: inlinehint nounwind uwtable
define internal zeroext i1 @fb_srange_iter(ptr noundef %0, i64 noundef %1, i64 noundef %2, ptr noundef %3, ptr noundef %4) #3 {
  %6 = alloca ptr, align 8
  %7 = alloca i64, align 8
  %8 = alloca i64, align 8
  %9 = alloca ptr, align 8
  %10 = alloca ptr, align 8
  store ptr %0, ptr %6, align 8, !tbaa !43
  store i64 %1, ptr %7, align 8, !tbaa !14
  store i64 %2, ptr %8, align 8, !tbaa !14
  store ptr %3, ptr %9, align 8, !tbaa !43
  store ptr %4, ptr %10, align 8, !tbaa !43
  %11 = load ptr, ptr %6, align 8, !tbaa !43
  %12 = load i64, ptr %7, align 8, !tbaa !14
  %13 = load i64, ptr %8, align 8, !tbaa !14
  %14 = load ptr, ptr %9, align 8, !tbaa !43
  %15 = load ptr, ptr %10, align 8, !tbaa !43
  %16 = call zeroext i1 @fb_iter_range_impl(ptr noundef %11, i64 noundef %12, i64 noundef %13, ptr noundef %14, ptr noundef %15, i1 noundef zeroext true, i1 noundef zeroext true)
  ret i1 %16
}

; Function Attrs: nounwind uwtable
define hidden zeroext i1 @je_hpdata_purge_next(ptr noundef %0, ptr noundef %1, ptr noundef %2, ptr noundef %3) #0 {
  %5 = alloca i1, align 1
  %6 = alloca ptr, align 8
  %7 = alloca ptr, align 8
  %8 = alloca ptr, align 8
  %9 = alloca ptr, align 8
  %10 = alloca i64, align 8
  %11 = alloca i64, align 8
  %12 = alloca i8, align 1
  %13 = alloca i32, align 4
  store ptr %0, ptr %6, align 8, !tbaa !15
  store ptr %1, ptr %7, align 8, !tbaa !46
  store ptr %2, ptr %8, align 8, !tbaa !4
  store ptr %3, ptr %9, align 8, !tbaa !43
  br label %14

14:                                               ; preds = %4
  br label %15

15:                                               ; preds = %14
  %16 = load ptr, ptr %7, align 8, !tbaa !46
  %17 = getelementptr inbounds nuw %struct.hpdata_purge_state_s, ptr %16, i32 0, i32 3
  %18 = load i64, ptr %17, align 8, !tbaa !50
  %19 = icmp eq i64 %18, 512
  br i1 %19, label %20, label %21

20:                                               ; preds = %15
  store i1 false, ptr %5, align 1
  br label %57

21:                                               ; preds = %15
  call void @llvm.lifetime.start.p0(i64 8, ptr %10) #7
  call void @llvm.lifetime.start.p0(i64 8, ptr %11) #7
  call void @llvm.lifetime.start.p0(i64 1, ptr %12) #7
  %22 = load ptr, ptr %7, align 8, !tbaa !46
  %23 = getelementptr inbounds nuw %struct.hpdata_purge_state_s, ptr %22, i32 0, i32 2
  %24 = getelementptr inbounds [8 x i64], ptr %23, i64 0, i64 0
  %25 = load ptr, ptr %7, align 8, !tbaa !46
  %26 = getelementptr inbounds nuw %struct.hpdata_purge_state_s, ptr %25, i32 0, i32 3
  %27 = load i64, ptr %26, align 8, !tbaa !50
  %28 = call zeroext i1 @fb_srange_iter(ptr noundef %24, i64 noundef 512, i64 noundef %27, ptr noundef %10, ptr noundef %11)
  %29 = zext i1 %28 to i8
  store i8 %29, ptr %12, align 1, !tbaa !19
  %30 = load i8, ptr %12, align 1, !tbaa !19, !range !21, !noundef !22
  %31 = trunc i8 %30 to i1
  br i1 %31, label %33, label %32

32:                                               ; preds = %21
  store i1 false, ptr %5, align 1
  store i32 1, ptr %13, align 4
  br label %56

33:                                               ; preds = %21
  %34 = load ptr, ptr %6, align 8, !tbaa !15
  %35 = call ptr @hpdata_addr_get(ptr noundef %34)
  %36 = load i64, ptr %10, align 8, !tbaa !14
  %37 = mul i64 %36, 4096
  %38 = getelementptr inbounds nuw i8, ptr %35, i64 %37
  %39 = load ptr, ptr %8, align 8, !tbaa !4
  store ptr %38, ptr %39, align 8, !tbaa !4
  %40 = load i64, ptr %11, align 8, !tbaa !14
  %41 = mul i64 %40, 4096
  %42 = load ptr, ptr %9, align 8, !tbaa !43
  store i64 %41, ptr %42, align 8, !tbaa !14
  %43 = load i64, ptr %10, align 8, !tbaa !14
  %44 = load i64, ptr %11, align 8, !tbaa !14
  %45 = add i64 %43, %44
  %46 = load ptr, ptr %7, align 8, !tbaa !46
  %47 = getelementptr inbounds nuw %struct.hpdata_purge_state_s, ptr %46, i32 0, i32 3
  store i64 %45, ptr %47, align 8, !tbaa !50
  %48 = load i64, ptr %11, align 8, !tbaa !14
  %49 = load ptr, ptr %7, align 8, !tbaa !46
  %50 = getelementptr inbounds nuw %struct.hpdata_purge_state_s, ptr %49, i32 0, i32 0
  %51 = load i64, ptr %50, align 8, !tbaa !48
  %52 = add i64 %51, %48
  store i64 %52, ptr %50, align 8, !tbaa !48
  br label %53

53:                                               ; preds = %33
  br label %54

54:                                               ; preds = %53
  br label %55

55:                                               ; preds = %54
  store i1 true, ptr %5, align 1
  store i32 1, ptr %13, align 4
  br label %56

56:                                               ; preds = %55, %32
  call void @llvm.lifetime.end.p0(i64 1, ptr %12) #7
  call void @llvm.lifetime.end.p0(i64 8, ptr %11) #7
  call void @llvm.lifetime.end.p0(i64 8, ptr %10) #7
  br label %57

57:                                               ; preds = %56, %20
  %58 = load i1, ptr %5, align 1
  ret i1 %58
}